; Function Attrs: norecurse nounwind uwtable
define internal void @_ZN5faiss22pairwise_indexed_L2sqrEmmPKfPKlS1_S3_Pf.omp_outlined(ptr noalias nocapture noundef readonly %0, ptr noalias nocapture readnone %1, ptr nocapture noundef nonnull readonly align 8 dereferenceable(8) %2, ptr nocapture noundef nonnull readonly align 8 dereferenceable(8) %3, ptr nocapture noundef nonnull readonly align 8 dereferenceable(8) %4, ptr nocapture noundef nonnull readonly align 8 dereferenceable(8) %5, ptr nocapture noundef nonnull readonly align 8 dereferenceable(8) %6, ptr nocapture noundef nonnull readonly align 8 dereferenceable(8) %7, ptr nocapture noundef nonnull readonly align 8 dereferenceable(8) %8) #1 personality ptr @__gxx_personality_v0 {
  %10 = alloca i64, align 8
  %11 = alloca i64, align 8
  %12 = alloca i64, align 8
  %13 = alloca i32, align 4
  %14 = load i64, ptr %2, align 8
  %.not = icmp eq i64 %14, 0
  br i1 %.not, label %46, label %15

15:                                               ; preds = %9
  %16 = add i64 %14, -1
  store i64 0, ptr %10, align 8
  store i64 %16, ptr %11, align 8
  store i64 1, ptr %12, align 8
  store i32 0, ptr %13, align 4
  %17 = load i32, ptr %0, align 4
  call void @__kmpc_for_static_init_8u(ptr nonnull @1, i32 %17, i32 34, ptr nonnull %13, ptr nonnull %10, ptr nonnull %11, ptr nonnull %12, i64 1, i64 1)
  %18 = load i64, ptr %11, align 8
  %19 = call i64 @llvm.umin.i64(i64 %18, i64 %16)
  store i64 %19, ptr %11, align 8
  %20 = load i64, ptr %10, align 8
  %.not28 = icmp ugt i64 %20, %19
  br i1 %.not28, label %._crit_edge, label %.lr.ph

.lr.ph:                                           ; preds = %15, %39
  %.024 = phi i64 [ %42, %39 ], [ %20, %15 ]
  %21 = load ptr, ptr %3, align 8
  %22 = getelementptr inbounds i64, ptr %21, i64 %.024
  %23 = load i64, ptr %22, align 8
  %24 = icmp sgt i64 %23, -1
  br i1 %24, label %25, label %39

25:                                               ; preds = %.lr.ph
  %26 = load ptr, ptr %4, align 8
  %27 = getelementptr inbounds i64, ptr %26, i64 %.024
  %28 = load i64, ptr %27, align 8
  %29 = icmp sgt i64 %28, -1
  br i1 %29, label %30, label %39

30:                                               ; preds = %25
  %31 = load ptr, ptr %6, align 8
  %32 = load i64, ptr %7, align 8
  %33 = mul i64 %32, %23
  %34 = getelementptr inbounds float, ptr %31, i64 %33
  %35 = load ptr, ptr %8, align 8
  %36 = mul i64 %32, %28
  %37 = getelementptr inbounds float, ptr %35, i64 %36
  %38 = invoke noundef float @_ZN5faiss10fvec_L2sqrEPKfS1_m(ptr noundef %34, ptr noundef %37, i64 noundef %32)
          to label %39 unwind label %47

39:                                               ; preds = %.lr.ph, %25, %30
  %.sink = phi float [ %38, %30 ], [ 0x7FF0000000000000, %25 ], [ 0x7FF0000000000000, %.lr.ph ]
  %40 = load ptr, ptr %5, align 8
  %41 = getelementptr inbounds float, ptr %40, i64 %.024
  store float %.sink, ptr %41, align 4
  %42 = add nuw i64 %.024, 1
  %43 = load i64, ptr %11, align 8
  %44 = add i64 %43, 1
  %45 = icmp ult i64 %42, %44
  br i1 %45, label %.lr.ph, label %._crit_edge

._crit_edge:                                      ; preds = %39, %15
  call void @__kmpc_for_static_fini(ptr nonnull @1, i32 %17)
  br label %46

46:                                               ; preds = %._crit_edge, %9
  ret void

47:                                               ; preds = %30
  %48 = landingpad { ptr, i32 }
          catch ptr null
  %49 = extractvalue { ptr, i32 } %48, 0
  call void @__clang_call_terminate(ptr %49) #22
  unreachable
}